target datalayout = "e-m:e-p270:32:32-p271:32:32-p272:64:64-i64:64-i128:128-f80:128-n8:16:32:64-S128"
target triple = "x86_64-unknown-linux-gnu"

%"class.icu_75::UTF8CollationIterator" = type { %"class.icu_75::CollationIterator.base", ptr, i32, i32 }
%"class.icu_75::CollationIterator.base" = type <{ %"class.icu_75::UObject", ptr, ptr, %"class.icu_75::CollationIterator::CEBuffer", i32, [4 x i8], ptr, i32, i8 }>
%"class.icu_75::UObject" = type { ptr }
%"class.icu_75::CollationIterator::CEBuffer" = type { i32, %"class.icu_75::MaybeStackArray.0" }
%"class.icu_75::MaybeStackArray.0" = type { ptr, i32, i8, [40 x i64] }

@.str = private unnamed_addr constant [17 x i8] c" 000000000000\1000\00", align 1
@.str.1 = private unnamed_addr constant [17 x i8] c"\00\00\00\00\00\00\00\00\1E\0F\0F\0F\00\00\00\00\00", align 1
@_ZN6icu_7512CollationFCD9lcccIndexE = external constant [2048 x i8], align 16
@_ZN6icu_7512CollationFCD8lcccBitsE = external constant [0 x i32], align 4

; Function Attrs: mustprogress nounwind uwtable
define linkonce_odr noundef signext i8 @_ZN6icu_7512CollationFCD7hasLcccEi(i32 noundef %c) #0 comdat align 2 {
entry:
  %c.addr = alloca i32, align 4
  %i = alloca i32, align 4
  store i32 %c, ptr %c.addr, align 4
  %0 = load i32, ptr %c.addr, align 4
  %cmp = icmp sge i32 %0, 768
  br i1 %cmp, label %land.lhs.true, label %land.end

land.lhs.true:                                    ; preds = %entry
  %1 = load i32, ptr %c.addr, align 4
  %shr = ashr i32 %1, 5
  %idxprom = sext i32 %shr to i64
  %arrayidx = getelementptr inbounds [2048 x i8], ptr @_ZN6icu_7512CollationFCD9lcccIndexE, i64 0, i64 %idxprom
  %2 = load i8, ptr %arrayidx, align 1
  %conv = zext i8 %2 to i32
  store i32 %conv, ptr %i, align 4
  %cmp1 = icmp ne i32 %conv, 0
  br i1 %cmp1, label %land.rhs, label %land.end

land.rhs:                                         ; preds = %land.lhs.true
  %3 = load i32, ptr %i, align 4
  %idxprom2 = sext i32 %3 to i64
  %arrayidx3 = getelementptr inbounds [0 x i32], ptr @_ZN6icu_7512CollationFCD8lcccBitsE, i64 0, i64 %idxprom2
  %4 = load i32, ptr %arrayidx3, align 4
  %5 = load i32, ptr %c.addr, align 4
  %and = and i32 %5, 31
  %shl = shl i32 1, %and
  %and4 = and i32 %4, %shl
  %cmp5 = icmp ne i32 %and4, 0
  br label %land.end

land.end:                                         ; preds = %land.rhs, %land.lhs.true, %entry
  %6 = phi i1 [ false, %land.lhs.true ], [ false, %entry ], [ %cmp5, %land.rhs ]
  %conv6 = zext i1 %6 to i8
  ret i8 %conv6
}

; Function Attrs: mustprogress uwtable
define noundef signext i8 @_ZNK6icu_7524FCDUTF8CollationIterator11nextHasLcccEv(ptr noundef nonnull align 8 dereferenceable(496) %this) #1 align 2 {
entry:
  %retval = alloca i8, align 1
  %this.addr = alloca ptr, align 8
  %c = alloca i32, align 4
  %i = alloca i32, align 4
  %__t = alloca i8, align 1
  store ptr %this, ptr %this.addr, align 8
  %this1 = load ptr, ptr %this.addr, align 8
  %u8 = getelementptr inbounds %"class.icu_75::UTF8CollationIterator", ptr %this1, i32 0, i32 1
  %0 = load ptr, ptr %u8, align 8
  %pos = getelementptr inbounds %"class.icu_75::UTF8CollationIterator", ptr %this1, i32 0, i32 2
  %1 = load i32, ptr %pos, align 8
  %idxprom = sext i32 %1 to i64
  %arrayidx = getelementptr inbounds i8, ptr %0, i64 %idxprom
  %2 = load i8, ptr %arrayidx, align 1
  %conv = zext i8 %2 to i32
  store i32 %conv, ptr %c, align 4
  %3 = load i32, ptr %c, align 4
  %cmp = icmp slt i32 %3, 204
  br i1 %cmp, label %if.then, label %lor.lhs.false

lor.lhs.false:                                    ; preds = %entry
  %4 = load i32, ptr %c, align 4
  %cmp2 = icmp sle i32 228, %4
  br i1 %cmp2, label %land.lhs.true, label %if.end

land.lhs.true:                                    ; preds = %lor.lhs.false
  %5 = load i32, ptr %c, align 4
  %cmp3 = icmp sle i32 %5, 237
  br i1 %cmp3, label %land.lhs.true4, label %if.end

land.lhs.true4:                                   ; preds = %land.lhs.true
  %6 = load i32, ptr %c, align 4
  %cmp5 = icmp ne i32 %6, 234
  br i1 %cmp5, label %if.then, label %if.end

if.then:                                          ; preds = %land.lhs.true4, %entry
  store i8 0, ptr %retval, align 1
  br label %return

if.end:                                           ; preds = %land.lhs.true4, %land.lhs.true, %lor.lhs.false
  %pos6 = getelementptr inbounds %"class.icu_75::UTF8CollationIterator", ptr %this1, i32 0, i32 2
  %7 = load i32, ptr %pos6, align 8
  store i32 %7, ptr %i, align 4
  br label %do.body

do.body:                                          ; preds = %if.end
  %u87 = getelementptr inbounds %"class.icu_75::UTF8CollationIterator", ptr %this1, i32 0, i32 1
  %8 = load ptr, ptr %u87, align 8
  %9 = load i32, ptr %i, align 4
  %inc = add nsw i32 %9, 1
  store i32 %inc, ptr %i, align 4
  %idxprom8 = sext i32 %9 to i64
  %arrayidx9 = getelementptr inbounds i8, ptr %8, i64 %idxprom8
  %10 = load i8, ptr %arrayidx9, align 1
  %conv10 = zext i8 %10 to i32
  store i32 %conv10, ptr %c, align 4
  %11 = load i32, ptr %c, align 4
  %and = and i32 %11, 128
  %cmp11 = icmp eq i32 %and, 0
  br i1 %cmp11, label %if.end87, label %if.then12

if.then12:                                        ; preds = %do.body
  store i8 0, ptr %__t, align 1
  %12 = load i32, ptr %i, align 4
  %length = getelementptr inbounds %"class.icu_75::UTF8CollationIterator", ptr %this1, i32 0, i32 3
  %13 = load i32, ptr %length, align 4
  %cmp13 = icmp ne i32 %12, %13
  br i1 %cmp13, label %land.lhs.true14, label %if.else

land.lhs.true14:                                  ; preds = %if.then12
  %14 = load i32, ptr %c, align 4
  %cmp15 = icmp sge i32 %14, 224
  br i1 %cmp15, label %cond.true, label %cond.false67

cond.true:                                        ; preds = %land.lhs.true14
  %15 = load i32, ptr %c, align 4
  %cmp16 = icmp slt i32 %15, 240
  br i1 %cmp16, label %cond.true17, label %cond.false

cond.true17:                                      ; preds = %cond.true
  %16 = load i32, ptr %c, align 4
  %and18 = and i32 %16, 15
  store i32 %and18, ptr %c, align 4
  %idxprom19 = sext i32 %and18 to i64
  %arrayidx20 = getelementptr inbounds [17 x i8], ptr @.str, i64 0, i64 %idxprom19
  %17 = load i8, ptr %arrayidx20, align 1
  %conv21 = sext i8 %17 to i32
  %u822 = getelementptr inbounds %"class.icu_75::UTF8CollationIterator", ptr %this1, i32 0, i32 1
  %18 = load ptr, ptr %u822, align 8
  %19 = load i32, ptr %i, align 4
  %idxprom23 = sext i32 %19 to i64
  %arrayidx24 = getelementptr inbounds i8, ptr %18, i64 %idxprom23
  %20 = load i8, ptr %arrayidx24, align 1
  store i8 %20, ptr %__t, align 1
  %conv25 = zext i8 %20 to i32
  %shr = ashr i32 %conv25, 5
  %shl = shl i32 1, %shr
  %and26 = and i32 %conv21, %shl
  %tobool = icmp ne i32 %and26, 0
  br i1 %tobool, label %land.lhs.true27, label %if.else

land.lhs.true27:                                  ; preds = %cond.true17
  %21 = load i8, ptr %__t, align 1
  %conv28 = zext i8 %21 to i32
  %and29 = and i32 %conv28, 63
  %conv30 = trunc i32 %and29 to i8
  store i8 %conv30, ptr %__t, align 1
  br i1 true, label %land.lhs.true60, label %if.else

cond.false:                                       ; preds = %cond.true
  %22 = load i32, ptr %c, align 4
  %sub = sub nsw i32 %22, 240
  store i32 %sub, ptr %c, align 4
  %cmp31 = icmp sle i32 %sub, 4
  br i1 %cmp31, label %land.lhs.true32, label %if.else

land.lhs.true32:                                  ; preds = %cond.false
  %u833 = getelementptr inbounds %"class.icu_75::UTF8CollationIterator", ptr %this1, i32 0, i32 1
  %23 = load ptr, ptr %u833, align 8
  %24 = load i32, ptr %i, align 4
  %idxprom34 = sext i32 %24 to i64
  %arrayidx35 = getelementptr inbounds i8, ptr %23, i64 %idxprom34
  %25 = load i8, ptr %arrayidx35, align 1
  store i8 %25, ptr %__t, align 1
  %conv36 = zext i8 %25 to i32
  %shr37 = ashr i32 %conv36, 4
  %idxprom38 = sext i32 %shr37 to i64
  %arrayidx39 = getelementptr inbounds [17 x i8], ptr @.str.1, i64 0, i64 %idxprom38
  %26 = load i8, ptr %arrayidx39, align 1
  %conv40 = sext i8 %26 to i32
  %27 = load i32, ptr %c, align 4
  %shl41 = shl i32 1, %27
  %and42 = and i32 %conv40, %shl41
  %tobool43 = icmp ne i32 %and42, 0
  br i1 %tobool43, label %land.lhs.true44, label %if.else

land.lhs.true44:                                  ; preds = %land.lhs.true32
  %28 = load i32, ptr %c, align 4
  %shl45 = shl i32 %28, 6
  %29 = load i8, ptr %__t, align 1
  %conv46 = zext i8 %29 to i32
  %and47 = and i32 %conv46, 63
  %or = or i32 %shl45, %and47
  store i32 %or, ptr %c, align 4
  %30 = load i32, ptr %i, align 4
  %inc48 = add nsw i32 %30, 1
  store i32 %inc48, ptr %i, align 4
  %length49 = getelementptr inbounds %"class.icu_75::UTF8CollationIterator", ptr %this1, i32 0, i32 3
  %31 = load i32, ptr %length49, align 4
  %cmp50 = icmp ne i32 %inc48, %31
  br i1 %cmp50, label %land.lhs.true51, label %if.else

land.lhs.true51:                                  ; preds = %land.lhs.true44
  %u852 = getelementptr inbounds %"class.icu_75::UTF8CollationIterator", ptr %this1, i32 0, i32 1
  %32 = load ptr, ptr %u852, align 8
  %33 = load i32, ptr %i, align 4
  %idxprom53 = sext i32 %33 to i64
  %arrayidx54 = getelementptr inbounds i8, ptr %32, i64 %idxprom53
  %34 = load i8, ptr %arrayidx54, align 1
  %conv55 = zext i8 %34 to i32
  %sub56 = sub nsw i32 %conv55, 128
  %conv57 = trunc i32 %sub56 to i8
  store i8 %conv57, ptr %__t, align 1
  %conv58 = zext i8 %conv57 to i32
  %cmp59 = icmp sle i32 %conv58, 63
  br i1 %cmp59, label %land.lhs.true60, label %if.else

land.lhs.true60:                                  ; preds = %land.lhs.true51, %land.lhs.true27
  %35 = load i32, ptr %c, align 4
  %shl61 = shl i32 %35, 6
  %36 = load i8, ptr %__t, align 1
  %conv62 = zext i8 %36 to i32
  %or63 = or i32 %shl61, %conv62
  store i32 %or63, ptr %c, align 4
  %37 = load i32, ptr %i, align 4
  %inc64 = add nsw i32 %37, 1
  store i32 %inc64, ptr %i, align 4
  %length65 = getelementptr inbounds %"class.icu_75::UTF8CollationIterator", ptr %this1, i32 0, i32 3
  %38 = load i32, ptr %length65, align 4
  %cmp66 = icmp ne i32 %inc64, %38
  br i1 %cmp66, label %land.lhs.true71, label %if.else

cond.false67:                                     ; preds = %land.lhs.true14
  %39 = load i32, ptr %c, align 4
  %cmp68 = icmp sge i32 %39, 194
  br i1 %cmp68, label %land.lhs.true69, label %if.else

land.lhs.true69:                                  ; preds = %cond.false67
  %40 = load i32, ptr %c, align 4
  %and70 = and i32 %40, 31
  store i32 %and70, ptr %c, align 4
  br i1 true, label %land.lhs.true71, label %if.else

land.lhs.true71:                                  ; preds = %land.lhs.true69, %land.lhs.true60
  %u872 = getelementptr inbounds %"class.icu_75::UTF8CollationIterator", ptr %this1, i32 0, i32 1
  %41 = load ptr, ptr %u872, align 8
  %42 = load i32, ptr %i, align 4
  %idxprom73 = sext i32 %42 to i64
  %arrayidx74 = getelementptr inbounds i8, ptr %41, i64 %idxprom73
  %43 = load i8, ptr %arrayidx74, align 1
  %conv75 = zext i8 %43 to i32
  %sub76 = sub nsw i32 %conv75, 128
  %conv77 = trunc i32 %sub76 to i8
  store i8 %conv77, ptr %__t, align 1
  %conv78 = zext i8 %conv77 to i32
  %cmp79 = icmp sle i32 %conv78, 63
  br i1 %cmp79, label %land.lhs.true80, label %if.else

land.lhs.true80:                                  ; preds = %land.lhs.true71
  %44 = load i32, ptr %c, align 4
  %shl81 = shl i32 %44, 6
  %45 = load i8, ptr %__t, align 1
  %conv82 = zext i8 %45 to i32
  %or83 = or i32 %shl81, %conv82
  store i32 %or83, ptr %c, align 4
  %46 = load i32, ptr %i, align 4
  %inc84 = add nsw i32 %46, 1
  store i32 %inc84, ptr %i, align 4
  br i1 true, label %if.then85, label %if.else

if.then85:                                        ; preds = %land.lhs.true80
  br label %if.end86

if.else:                                          ; preds = %land.lhs.true80, %land.lhs.true71, %land.lhs.true69, %cond.false67, %land.lhs.true60, %land.lhs.true51, %land.lhs.true44, %land.lhs.true32, %cond.false, %land.lhs.true27, %cond.true17, %if.then12
  store i32 65533, ptr %c, align 4
  br label %if.end86

if.end86:                                         ; preds = %if.else, %if.then85
  br label %if.end87

if.end87:                                         ; preds = %if.end86, %do.body
  br label %do.end

do.end:                                           ; preds = %if.end87
  %47 = load i32, ptr %c, align 4
  %cmp88 = icmp sgt i32 %47, 65535
  br i1 %cmp88, label %if.then89, label %if.end93

if.then89:                                        ; preds = %do.end
  %48 = load i32, ptr %c, align 4
  %shr90 = ashr i32 %48, 10
  %add = add nsw i32 %shr90, 55232
  %conv91 = trunc i32 %add to i16
  %conv92 = zext i16 %conv91 to i32
  store i32 %conv92, ptr %c, align 4
  br label %if.end93

if.end93:                                         ; preds = %if.then89, %do.end
  %49 = load i32, ptr %c, align 4
  %call = call noundef signext i8 @_ZN6icu_7512CollationFCD7hasLcccEi(i32 noundef %49)
  store i8 %call, ptr %retval, align 1
  br label %return

return:                                           ; preds = %if.end93, %if.then
  %50 = load i8, ptr %retval, align 1
  ret i8 %50
}