; Function Attrs: mustprogress nofree norecurse nosync nounwind willreturn memory(read, inaccessiblemem: none) uwtable
define noundef signext i8 @_ZNK6icu_7524FCDUTF8CollationIterator11nextHasLcccEv(ptr nocapture noundef nonnull readonly align 8 dereferenceable(496) %this) local_unnamed_addr #12 align 2 {
entry:
  %u8 = getelementptr inbounds i8, ptr %this, i64 392
  %0 = load ptr, ptr %u8, align 8
  %pos = getelementptr inbounds i8, ptr %this, i64 400
  %1 = load i32, ptr %pos, align 8
  %idxprom = sext i32 %1 to i64
  %arrayidx = getelementptr inbounds i8, ptr %0, i64 %idxprom
  %2 = load i8, ptr %arrayidx, align 1
  %conv = zext i8 %2 to i32
  %cmp = icmp ult i8 %2, -52
  br i1 %cmp, label %return, label %lor.lhs.false

lor.lhs.false:                                    ; preds = %entry
  %3 = add nsw i8 %2, 28
  %or.cond = icmp ult i8 %3, 10
  %cmp5 = icmp ne i8 %2, -22
  %or.cond1 = and i1 %cmp5, %or.cond
  br i1 %or.cond1, label %return, label %if.end

if.end:                                           ; preds = %lor.lhs.false
  %inc = add nsw i32 %1, 1
  %length = getelementptr inbounds i8, ptr %this, i64 404
  %4 = load i32, ptr %length, align 4
  %cmp13.not = icmp eq i32 %inc, %4
  br i1 %cmp13.not, label %land.lhs.true.i, label %land.lhs.true14

land.lhs.true14:                                  ; preds = %if.end
  %cmp15 = icmp ugt i8 %2, -33
  br i1 %cmp15, label %cond.true, label %land.lhs.true69

cond.true:                                        ; preds = %land.lhs.true14
  %cmp16 = icmp ult i8 %2, -16
  br i1 %cmp16, label %cond.true17, label %cond.false

cond.true17:                                      ; preds = %cond.true
  %and18 = and i32 %conv, 15
  %idxprom19 = zext nneg i32 %and18 to i64
  %arrayidx20 = getelementptr inbounds [17 x i8], ptr @.str, i64 0, i64 %idxprom19
  %5 = load i8, ptr %arrayidx20, align 1
  %conv2137 = zext i8 %5 to i32
  %idxprom23 = sext i32 %inc to i64
  %arrayidx24 = getelementptr inbounds i8, ptr %0, i64 %idxprom23
  %6 = load i8, ptr %arrayidx24, align 1
  %7 = lshr i8 %6, 5
  %shr = zext nneg i8 %7 to i32
  %shl = shl nuw nsw i32 1, %shr
  %and26 = and i32 %shl, %conv2137
  %tobool.not = icmp eq i32 %and26, 0
  br i1 %tobool.not, label %land.lhs.true.i, label %land.lhs.true27

land.lhs.true27:                                  ; preds = %cond.true17
  %and29 = and i8 %6, 63
  br label %land.lhs.true60

cond.false:                                       ; preds = %cond.true
  %sub = add nsw i32 %conv, -240
  %cmp31 = icmp ult i8 %2, -11
  br i1 %cmp31, label %land.lhs.true32, label %land.lhs.true.i

land.lhs.true32:                                  ; preds = %cond.false
  %idxprom34 = sext i32 %inc to i64
  %arrayidx35 = getelementptr inbounds i8, ptr %0, i64 %idxprom34
  %8 = load i8, ptr %arrayidx35, align 1
  %conv36 = zext i8 %8 to i32
  %shr37 = lshr i32 %conv36, 4
  %idxprom38 = zext nneg i32 %shr37 to i64
  %arrayidx39 = getelementptr inbounds [17 x i8], ptr @.str.1, i64 0, i64 %idxprom38
  %9 = load i8, ptr %arrayidx39, align 1
  %conv40 = sext i8 %9 to i32
  %shl41 = shl nuw nsw i32 1, %sub
  %and42 = and i32 %shl41, %conv40
  %tobool43.not = icmp eq i32 %and42, 0
  br i1 %tobool43.not, label %land.lhs.true.i, label %land.lhs.true44

land.lhs.true44:                                  ; preds = %land.lhs.true32
  %inc48 = add nsw i32 %1, 2
  %cmp50.not = icmp eq i32 %inc48, %4
  br i1 %cmp50.not, label %land.lhs.true.i, label %land.lhs.true51

land.lhs.true51:                                  ; preds = %land.lhs.true44
  %shl45 = shl nuw nsw i32 %sub, 6
  %and47 = and i32 %conv36, 63
  %or = or disjoint i32 %and47, %shl45
  %idxprom53 = sext i32 %inc48 to i64
  %arrayidx54 = getelementptr inbounds i8, ptr %0, i64 %idxprom53
  %10 = load i8, ptr %arrayidx54, align 1
  %sub56 = xor i8 %10, -128
  %cmp59 = icmp ult i8 %sub56, 64
  br i1 %cmp59, label %land.lhs.true60, label %land.lhs.true.i

land.lhs.true60:                                  ; preds = %land.lhs.true27, %land.lhs.true51
  %c.0 = phi i32 [ %and18, %land.lhs.true27 ], [ %or, %land.lhs.true51 ]
  %i.0 = phi i32 [ %inc, %land.lhs.true27 ], [ %inc48, %land.lhs.true51 ]
  %__t.0 = phi i8 [ %and29, %land.lhs.true27 ], [ %sub56, %land.lhs.true51 ]
  %shl61 = shl nuw nsw i32 %c.0, 6
  %conv62 = zext nneg i8 %__t.0 to i32
  %or63 = or disjoint i32 %shl61, %conv62
  %inc64 = add nsw i32 %i.0, 1
  %cmp66.not = icmp eq i32 %inc64, %4
  br i1 %cmp66.not, label %land.lhs.true.i, label %land.lhs.true71

land.lhs.true69:                                  ; preds = %land.lhs.true14
  %and70 = and i32 %conv, 31
  br label %land.lhs.true71

land.lhs.true71:                                  ; preds = %land.lhs.true69, %land.lhs.true60
  %c.1 = phi i32 [ %or63, %land.lhs.true60 ], [ %and70, %land.lhs.true69 ]
  %i.1 = phi i32 [ %inc64, %land.lhs.true60 ], [ %inc, %land.lhs.true69 ]
  %idxprom73 = sext i32 %i.1 to i64
  %arrayidx74 = getelementptr inbounds i8, ptr %0, i64 %idxprom73
  %11 = load i8, ptr %arrayidx74, align 1
  %sub76 = xor i8 %11, -128
  %cmp79 = icmp ult i8 %sub76, 64
  br i1 %cmp79, label %do.end, label %land.lhs.true.i

do.end:                                           ; preds = %land.lhs.true71
  %conv78 = zext nneg i8 %sub76 to i32
  %shl81 = shl nuw nsw i32 %c.1, 6
  %or83 = or disjoint i32 %shl81, %conv78
  %or83.fr = freeze i32 %or83
  %cmp88 = icmp ugt i32 %or83.fr, 65535
  %shr90 = lshr i32 %c.1, 4
  %conv91 = add nuw nsw i32 %shr90, 55232
  %conv92 = and i32 %conv91, 65535
  %spec.select = select i1 %cmp88, i32 %conv92, i32 %or83.fr
  %cmp.i = icmp ugt i32 %spec.select, 767
  br i1 %cmp.i, label %land.lhs.true.i, label %return

land.lhs.true.i:                                  ; preds = %land.lhs.true71, %land.lhs.true60, %land.lhs.true51, %land.lhs.true44, %land.lhs.true32, %cond.false, %cond.true17, %if.end, %do.end
  %12 = phi i32 [ %spec.select, %do.end ], [ 65533, %if.end ], [ 65533, %cond.true17 ], [ 65533, %cond.false ], [ 65533, %land.lhs.true32 ], [ 65533, %land.lhs.true44 ], [ 65533, %land.lhs.true51 ], [ 65533, %land.lhs.true60 ], [ 65533, %land.lhs.true71 ]
  %shr.i = lshr i32 %12, 5
  %idxprom.i = zext nneg i32 %shr.i to i64
  %arrayidx.i = getelementptr inbounds [2048 x i8], ptr @_ZN6icu_7512CollationFCD9lcccIndexE, i64 0, i64 %idxprom.i
  %13 = load i8, ptr %arrayidx.i, align 1
  %cmp1.not.i = icmp eq i8 %13, 0
  br i1 %cmp1.not.i, label %return, label %land.rhs.i

land.rhs.i:                                       ; preds = %land.lhs.true.i
  %idxprom2.i = zext i8 %13 to i64
  %arrayidx3.i = getelementptr inbounds [0 x i32], ptr @_ZN6icu_7512CollationFCD8lcccBitsE, i64 0, i64 %idxprom2.i
  %14 = load i32, ptr %arrayidx3.i, align 4
  %and.i = and i32 %12, 31
  %shl.i = shl nuw i32 1, %and.i
  %and4.i = and i32 %14, %shl.i
  %cmp5.i = icmp ne i32 %and4.i, 0
  %15 = zext i1 %cmp5.i to i8
  br label %return

return:                                           ; preds = %land.rhs.i, %land.lhs.true.i, %do.end, %entry, %lor.lhs.false
  %retval.0 = phi i8 [ 0, %lor.lhs.false ], [ 0, %entry ], [ 0, %land.lhs.true.i ], [ 0, %do.end ], [ %15, %land.rhs.i ]
  ret i8 %retval.0
}